target datalayout = "e-m:e-p270:32:32-p271:32:32-p272:64:64-i64:64-i128:128-f80:128-n8:16:32:64-S128"
target triple = "x86_64-unknown-linux-gnu"

%struct.SCSISense = type { i8, i8, i8 }
%struct.SCSIDiskState = type { %struct.SCSIDevice, i32, i8, i8, i8, i16, i64, i64, i32, ptr, ptr, ptr, ptr, ptr, ptr, i8, i8, i16 }
%struct.SCSIDevice = type { %struct.DeviceState, ptr, ptr, i32, %struct.BlockConf, %struct.SCSISense, i8, [252 x i8], i32, %union.anon, i32, i32, i32, i32, i64, i64, i64, i32, i32, i32, i8, i8 }
%struct.DeviceState = type { %struct.Object, ptr, ptr, i8, i8, i64, ptr, i32, i8, ptr, %struct.NamedGPIOListHead, %struct.NamedClockListHead, %struct.BusStateHead, i32, i32, i32, %struct.ResettableState, ptr, %struct.MemReentrancyGuard }
%struct.Object = type { ptr, ptr, ptr, i32, ptr }
%struct.NamedGPIOListHead = type { ptr }
%struct.NamedClockListHead = type { ptr }
%struct.BusStateHead = type { ptr }
%struct.ResettableState = type { i32, i8, i8 }
%struct.MemReentrancyGuard = type { i8 }
%struct.BlockConf = type { ptr, i32, i32, i32, i32, i32, i32, i32, i32, i32, i32, i32, i32, i32, i32, i8, i32, i32, i32, i32 }
%union.anon = type { %struct.QTailQLink }
%struct.QTailQLink = type { ptr, ptr }

@.str.5 = private unnamed_addr constant [28 x i8] c"../qemu/hw/scsi/scsi-disk.c\00", align 1
@.str.10 = private unnamed_addr constant [23 x i8] c"drive property not set\00", align 1
@__func__.scsi_block_realize = private unnamed_addr constant [19 x i8] c"scsi_block_realize\00", align 1
@scsi_block_realize.print_once_ = internal global i8 0, align 1
@.str.145 = private unnamed_addr constant [132 x i8] c"rotation_rate is specified for scsi-block but is not implemented. This option is deprecated and will be removed in a future version\00", align 1
@.str.146 = private unnamed_addr constant [32 x i8] c"cannot get SG_IO version number\00", align 1
@.str.147 = private unnamed_addr constant [24 x i8] c"Is this a SCSI device?\0A\00", align 1
@.str.148 = private unnamed_addr constant [31 x i8] c"scsi generic interface too old\00", align 1
@.str.149 = private unnamed_addr constant [15 x i8] c"INQUIRY failed\00", align 1

; Function Attrs: nounwind sspstrong uwtable
define internal i32 @get_device_type(ptr noundef %s) #0 {
entry:
  %retval = alloca i32, align 4
  %s.addr = alloca ptr, align 8
  %cmd = alloca [16 x i8], align 16
  %buf = alloca [36 x i8], align 16
  %ret = alloca i32, align 4
  store ptr %s, ptr %s.addr, align 8
  %arraydecay = getelementptr inbounds [16 x i8], ptr %cmd, i64 0, i64 0
  call void @llvm.memset.p0.i64(ptr align 16 %arraydecay, i8 0, i64 16, i1 false)
  %arraydecay1 = getelementptr inbounds [36 x i8], ptr %buf, i64 0, i64 0
  call void @llvm.memset.p0.i64(ptr align 16 %arraydecay1, i8 0, i64 36, i1 false)
  %arrayidx = getelementptr [16 x i8], ptr %cmd, i64 0, i64 0
  store i8 18, ptr %arrayidx, align 16
  %arrayidx2 = getelementptr [16 x i8], ptr %cmd, i64 0, i64 4
  store i8 36, ptr %arrayidx2, align 4
  %0 = load ptr, ptr %s.addr, align 8
  %qdev = getelementptr inbounds %struct.SCSIDiskState, ptr %0, i32 0, i32 0
  %conf = getelementptr inbounds %struct.SCSIDevice, ptr %qdev, i32 0, i32 4
  %blk = getelementptr inbounds %struct.BlockConf, ptr %conf, i32 0, i32 0
  %1 = load ptr, ptr %blk, align 8
  %arraydecay3 = getelementptr inbounds [16 x i8], ptr %cmd, i64 0, i64 0
  %arraydecay4 = getelementptr inbounds [36 x i8], ptr %buf, i64 0, i64 0
  %2 = load ptr, ptr %s.addr, align 8
  %qdev5 = getelementptr inbounds %struct.SCSIDiskState, ptr %2, i32 0, i32 0
  %io_timeout = getelementptr inbounds %struct.SCSIDevice, ptr %qdev5, i32 0, i32 19
  %3 = load i32, ptr %io_timeout, align 8
  %call = call i32 @scsi_SG_IO_FROM_DEV(ptr noundef %1, ptr noundef %arraydecay3, i8 noundef zeroext 16, ptr noundef %arraydecay4, i8 noundef zeroext 36, i32 noundef %3)
  store i32 %call, ptr %ret, align 4
  %4 = load i32, ptr %ret, align 4
  %cmp = icmp slt i32 %4, 0
  br i1 %cmp, label %if.then, label %if.end

if.then:                                          ; preds = %entry
  store i32 -1, ptr %retval, align 4
  br label %return

if.end:                                           ; preds = %entry
  %arrayidx6 = getelementptr [36 x i8], ptr %buf, i64 0, i64 0
  %5 = load i8, ptr %arrayidx6, align 16
  %conv = zext i8 %5 to i32
  %6 = load ptr, ptr %s.addr, align 8
  %qdev7 = getelementptr inbounds %struct.SCSIDiskState, ptr %6, i32 0, i32 0
  %type = getelementptr inbounds %struct.SCSIDevice, ptr %qdev7, i32 0, i32 13
  store i32 %conv, ptr %type, align 4
  %arrayidx8 = getelementptr [36 x i8], ptr %buf, i64 0, i64 1
  %7 = load i8, ptr %arrayidx8, align 1
  %conv9 = zext i8 %7 to i32
  %and = and i32 %conv9, 128
  %tobool = icmp ne i32 %and, 0
  br i1 %tobool, label %if.then10, label %if.end11

if.then10:                                        ; preds = %if.end
  %8 = load ptr, ptr %s.addr, align 8
  %features = getelementptr inbounds %struct.SCSIDiskState, ptr %8, i32 0, i32 1
  %9 = load i32, ptr %features, align 8
  %or = or i32 %9, 1
  store i32 %or, ptr %features, align 8
  br label %if.end11

if.end11:                                         ; preds = %if.then10, %if.end
  store i32 0, ptr %retval, align 4
  br label %return

return:                                           ; preds = %if.end11, %if.then
  %10 = load i32, ptr %retval, align 4
  ret i32 %10
}

; Function Attrs: nounwind sspstrong uwtable
define internal void @scsi_block_realize(ptr noundef %dev, ptr noundef %errp) #0 {
entry:
  %dev.addr = alloca ptr, align 8
  %errp.addr = alloca ptr, align 8
  %s = alloca ptr, align 8
  %tmp = alloca ptr, align 8
  %__mptr = alloca ptr, align 8
  %tmp1 = alloca ptr, align 8
  %ctx = alloca ptr, align 8
  %sg_version = alloca i32, align 4
  %rc = alloca i32, align 4
  %tmp4 = alloca i8, align 1
  store ptr %dev, ptr %dev.addr, align 8
  store ptr %errp, ptr %errp.addr, align 8
  %0 = load ptr, ptr %dev.addr, align 8
  store ptr %0, ptr %__mptr, align 8
  %1 = load ptr, ptr %__mptr, align 8
  %add.ptr = getelementptr i8, ptr %1, i64 0
  store ptr %add.ptr, ptr %tmp1, align 8
  %2 = load ptr, ptr %tmp1, align 8
  store ptr %2, ptr %tmp, align 8
  %3 = load ptr, ptr %tmp, align 8
  store ptr %3, ptr %s, align 8
  %4 = load ptr, ptr %s, align 8
  %qdev = getelementptr inbounds %struct.SCSIDiskState, ptr %4, i32 0, i32 0
  %conf = getelementptr inbounds %struct.SCSIDevice, ptr %qdev, i32 0, i32 4
  %blk = getelementptr inbounds %struct.BlockConf, ptr %conf, i32 0, i32 0
  %5 = load ptr, ptr %blk, align 8
  %tobool = icmp ne ptr %5, null
  br i1 %tobool, label %if.end, label %if.then

if.then:                                          ; preds = %entry
  %6 = load ptr, ptr %errp.addr, align 8
  call void (ptr, ptr, i32, ptr, ptr, ...) @error_setg_internal(ptr noundef %6, ptr noundef @.str.5, i32 noundef 2740, ptr noundef @__func__.scsi_block_realize, ptr noundef @.str.10)
  br label %return

if.end:                                           ; preds = %entry
  %7 = load ptr, ptr %s, align 8
  %rotation_rate = getelementptr inbounds %struct.SCSIDiskState, ptr %7, i32 0, i32 17
  %8 = load i16, ptr %rotation_rate, align 2
  %tobool2 = icmp ne i16 %8, 0
  br i1 %tobool2, label %if.then3, label %if.end6

if.then3:                                         ; preds = %if.end
  %call = call zeroext i1 (ptr, ptr, ...) @error_report_once_cond(ptr noundef @scsi_block_realize.print_once_, ptr noundef @.str.145)
  %frombool = zext i1 %call to i8
  store i8 %frombool, ptr %tmp4, align 1
  br label %if.end6

if.end6:                                          ; preds = %if.then3, %if.end
  %9 = load ptr, ptr %s, align 8
  %qdev7 = getelementptr inbounds %struct.SCSIDiskState, ptr %9, i32 0, i32 0
  %conf8 = getelementptr inbounds %struct.SCSIDevice, ptr %qdev7, i32 0, i32 4
  %blk9 = getelementptr inbounds %struct.BlockConf, ptr %conf8, i32 0, i32 0
  %10 = load ptr, ptr %blk9, align 8
  %call10 = call ptr @blk_get_aio_context(ptr noundef %10)
  store ptr %call10, ptr %ctx, align 8
  %11 = load ptr, ptr %ctx, align 8
  call void @aio_context_acquire(ptr noundef %11)
  %12 = load ptr, ptr %s, align 8
  %qdev11 = getelementptr inbounds %struct.SCSIDiskState, ptr %12, i32 0, i32 0
  %conf12 = getelementptr inbounds %struct.SCSIDevice, ptr %qdev11, i32 0, i32 4
  %blk13 = getelementptr inbounds %struct.BlockConf, ptr %conf12, i32 0, i32 0
  %13 = load ptr, ptr %blk13, align 8
  %call14 = call i32 @blk_ioctl(ptr noundef %13, i64 noundef 8834, ptr noundef %sg_version)
  store i32 %call14, ptr %rc, align 4
  %14 = load i32, ptr %rc, align 4
  %cmp = icmp slt i32 %14, 0
  br i1 %cmp, label %if.then15, label %if.end19

if.then15:                                        ; preds = %if.end6
  %15 = load ptr, ptr %errp.addr, align 8
  %16 = load i32, ptr %rc, align 4
  %sub = sub i32 0, %16
  call void (ptr, ptr, i32, ptr, i32, ptr, ...) @error_setg_errno_internal(ptr noundef %15, ptr noundef @.str.5, i32 noundef 2756, ptr noundef @__func__.scsi_block_realize, i32 noundef %sub, ptr noundef @.str.146)
  %17 = load i32, ptr %rc, align 4
  %cmp16 = icmp ne i32 %17, -1
  br i1 %cmp16, label %if.then17, label %if.end18

if.then17:                                        ; preds = %if.then15
  %18 = load ptr, ptr %errp.addr, align 8
  call void (ptr, ptr, ...) @error_append_hint(ptr noundef %18, ptr noundef @.str.147)
  br label %if.end18

if.end18:                                         ; preds = %if.then17, %if.then15
  br label %out

if.end19:                                         ; preds = %if.end6
  %19 = load i32, ptr %sg_version, align 4
  %cmp20 = icmp slt i32 %19, 30000
  br i1 %cmp20, label %if.then21, label %if.end22

if.then21:                                        ; preds = %if.end19
  %20 = load ptr, ptr %errp.addr, align 8
  call void (ptr, ptr, i32, ptr, ptr, ...) @error_setg_internal(ptr noundef %20, ptr noundef @.str.5, i32 noundef 2763, ptr noundef @__func__.scsi_block_realize, ptr noundef @.str.148)
  br label %out

if.end22:                                         ; preds = %if.end19
  %21 = load ptr, ptr %s, align 8
  %call23 = call i32 @get_device_type(ptr noundef %21)
  store i32 %call23, ptr %rc, align 4
  %22 = load i32, ptr %rc, align 4
  %cmp24 = icmp slt i32 %22, 0
  br i1 %cmp24, label %if.then25, label %if.end26

if.then25:                                        ; preds = %if.end22
  %23 = load ptr, ptr %errp.addr, align 8
  call void (ptr, ptr, i32, ptr, ptr, ...) @error_setg_internal(ptr noundef %23, ptr noundef @.str.5, i32 noundef 2770, ptr noundef @__func__.scsi_block_realize, ptr noundef @.str.149)
  br label %out

if.end26:                                         ; preds = %if.end22
  %24 = load ptr, ptr %s, align 8
  %qdev27 = getelementptr inbounds %struct.SCSIDiskState, ptr %24, i32 0, i32 0
  %type = getelementptr inbounds %struct.SCSIDevice, ptr %qdev27, i32 0, i32 13
  %25 = load i32, ptr %type, align 4
  %cmp28 = icmp eq i32 %25, 5
  br i1 %cmp28, label %if.then32, label %lor.lhs.false

lor.lhs.false:                                    ; preds = %if.end26
  %26 = load ptr, ptr %s, align 8
  %qdev29 = getelementptr inbounds %struct.SCSIDiskState, ptr %26, i32 0, i32 0
  %type30 = getelementptr inbounds %struct.SCSIDevice, ptr %qdev29, i32 0, i32 13
  %27 = load i32, ptr %type30, align 4
  %cmp31 = icmp eq i32 %27, 4
  br i1 %cmp31, label %if.then32, label %if.else

if.then32:                                        ; preds = %lor.lhs.false, %if.end26
  %28 = load ptr, ptr %s, align 8
  %qdev33 = getelementptr inbounds %struct.SCSIDiskState, ptr %28, i32 0, i32 0
  %blocksize = getelementptr inbounds %struct.SCSIDevice, ptr %qdev33, i32 0, i32 12
  store i32 2048, ptr %blocksize, align 8
  br label %if.end36

if.else:                                          ; preds = %lor.lhs.false
  %29 = load ptr, ptr %s, align 8
  %qdev34 = getelementptr inbounds %struct.SCSIDiskState, ptr %29, i32 0, i32 0
  %blocksize35 = getelementptr inbounds %struct.SCSIDevice, ptr %qdev34, i32 0, i32 12
  store i32 512, ptr %blocksize35, align 8
  br label %if.end36

if.end36:                                         ; preds = %if.else, %if.then32
  %30 = load ptr, ptr %s, align 8
  %features = getelementptr inbounds %struct.SCSIDiskState, ptr %30, i32 0, i32 1
  %31 = load i32, ptr %features, align 8
  %or = or i32 %31, 4
  store i32 %or, ptr %features, align 8
  %32 = load ptr, ptr %s, align 8
  %qdev37 = getelementptr inbounds %struct.SCSIDiskState, ptr %32, i32 0, i32 0
  %33 = load ptr, ptr %errp.addr, align 8
  call void @scsi_realize(ptr noundef %qdev37, ptr noundef %33)
  %34 = load ptr, ptr %s, align 8
  %qdev38 = getelementptr inbounds %struct.SCSIDiskState, ptr %34, i32 0, i32 0
  call void @scsi_generic_read_device_inquiry(ptr noundef %qdev38)
  br label %out

out:                                              ; preds = %if.end36, %if.then25, %if.then21, %if.end18
  %35 = load ptr, ptr %ctx, align 8
  call void @aio_context_release(ptr noundef %35)
  br label %return

return:                                           ; preds = %out, %if.then
  ret void
}