; Function Attrs: nounwind sspstrong uwtable
define internal void @scsi_block_realize(ptr noundef %dev, ptr noundef %errp) #0 {
entry:
  %cmd.i = alloca [16 x i8], align 16
  %buf.i = alloca [36 x i8], align 16
  %sg_version = alloca i32, align 4
  %conf = getelementptr inbounds nuw i8, ptr %dev, i64 184
  %0 = load ptr, ptr %conf, align 8
  %tobool.not = icmp eq ptr %0, null
  br i1 %tobool.not, label %if.then, label %if.end

if.then:                                          ; preds = %entry
  tail call void (ptr, ptr, i32, ptr, ptr, ...) @error_setg_internal(ptr noundef %errp, ptr noundef nonnull @.str.5, i32 noundef 2740, ptr noundef nonnull @__func__.scsi_block_realize, ptr noundef nonnull @.str.10) #18
  br label %return

if.end:                                           ; preds = %entry
  %rotation_rate = getelementptr inbounds nuw i8, ptr %dev, i64 698
  %1 = load i16, ptr %rotation_rate, align 2
  %tobool2.not = icmp eq i16 %1, 0
  br i1 %tobool2.not, label %if.end6, label %if.then3

if.then3:                                         ; preds = %if.end
  %call = tail call zeroext i1 (ptr, ptr, ...) @error_report_once_cond(ptr noundef nonnull @scsi_block_realize.print_once_, ptr noundef nonnull @.str.145) #18
  %.pre = load ptr, ptr %conf, align 8
  br label %if.end6

if.end6:                                          ; preds = %if.then3, %if.end
  %2 = phi ptr [ %.pre, %if.then3 ], [ %0, %if.end ]
  %call10 = tail call ptr @blk_get_aio_context(ptr noundef %2) #18
  tail call void @aio_context_acquire(ptr noundef %call10) #18
  %3 = load ptr, ptr %conf, align 8
  %call14 = call i32 @blk_ioctl(ptr noundef %3, i64 noundef 8834, ptr noundef nonnull %sg_version) #18
  %cmp = icmp slt i32 %call14, 0
  br i1 %cmp, label %if.then15, label %if.end19

if.then15:                                        ; preds = %if.end6
  %sub = sub i32 0, %call14
  call void (ptr, ptr, i32, ptr, i32, ptr, ...) @error_setg_errno_internal(ptr noundef %errp, ptr noundef nonnull @.str.5, i32 noundef 2756, ptr noundef nonnull @__func__.scsi_block_realize, i32 noundef %sub, ptr noundef nonnull @.str.146) #18
  %cmp16.not = icmp eq i32 %call14, -1
  br i1 %cmp16.not, label %out, label %if.then17

if.then17:                                        ; preds = %if.then15
  call void (ptr, ptr, ...) @error_append_hint(ptr noundef %errp, ptr noundef nonnull @.str.147) #18
  br label %out

if.end19:                                         ; preds = %if.end6
  %4 = load i32, ptr %sg_version, align 4
  %cmp20 = icmp slt i32 %4, 30000
  br i1 %cmp20, label %if.then21, label %if.end22

if.then21:                                        ; preds = %if.end19
  call void (ptr, ptr, i32, ptr, ptr, ...) @error_setg_internal(ptr noundef %errp, ptr noundef nonnull @.str.5, i32 noundef 2763, ptr noundef nonnull @__func__.scsi_block_realize, ptr noundef nonnull @.str.148) #18
  br label %out

if.end22:                                         ; preds = %if.end19
  call void @llvm.lifetime.start.p0(i64 16, ptr nonnull %cmd.i)
  call void @llvm.lifetime.start.p0(i64 36, ptr nonnull %buf.i)
  call void @llvm.memset.p0.i64(ptr noundef nonnull align 16 dereferenceable(16) %cmd.i, i8 0, i64 16, i1 false)
  call void @llvm.memset.p0.i64(ptr noundef nonnull align 16 dereferenceable(36) %buf.i, i8 0, i64 36, i1 false)
  store i8 18, ptr %cmd.i, align 16
  %arrayidx2.i = getelementptr inbounds nuw i8, ptr %cmd.i, i64 4
  store i8 36, ptr %arrayidx2.i, align 4
  %5 = load ptr, ptr %conf, align 8
  %io_timeout.i = getelementptr inbounds nuw i8, ptr %dev, i64 600
  %6 = load i32, ptr %io_timeout.i, align 8
  %call.i = call i32 @scsi_SG_IO_FROM_DEV(ptr noundef %5, ptr noundef nonnull %cmd.i, i8 noundef zeroext 16, ptr noundef nonnull %buf.i, i8 noundef zeroext 36, i32 noundef %6) #18
  %cmp.i = icmp slt i32 %call.i, 0
  br i1 %cmp.i, label %if.then25, label %if.end.i

if.end.i:                                         ; preds = %if.end22
  %7 = load i8, ptr %buf.i, align 16
  %conv.i = zext i8 %7 to i32
  %type.i = getelementptr inbounds nuw i8, ptr %dev, i64 564
  store i32 %conv.i, ptr %type.i, align 4
  %arrayidx8.i = getelementptr inbounds nuw i8, ptr %buf.i, i64 1
  %8 = load i8, ptr %arrayidx8.i, align 1
  %tobool.not.i = icmp sgt i8 %8, -1
  br i1 %tobool.not.i, label %if.end26, label %if.then10.i

if.then10.i:                                      ; preds = %if.end.i
  %features.i = getelementptr inbounds nuw i8, ptr %dev, i64 608
  %9 = load i32, ptr %features.i, align 8
  %or.i = or i32 %9, 1
  store i32 %or.i, ptr %features.i, align 8
  br label %if.end26

if.then25:                                        ; preds = %if.end22
  call void @llvm.lifetime.end.p0(i64 16, ptr nonnull %cmd.i)
  call void @llvm.lifetime.end.p0(i64 36, ptr nonnull %buf.i)
  call void (ptr, ptr, i32, ptr, ptr, ...) @error_setg_internal(ptr noundef %errp, ptr noundef nonnull @.str.5, i32 noundef 2770, ptr noundef nonnull @__func__.scsi_block_realize, ptr noundef nonnull @.str.149) #18
  br label %out

if.end26:                                         ; preds = %if.then10.i, %if.end.i
  call void @llvm.lifetime.end.p0(i64 16, ptr nonnull %cmd.i)
  call void @llvm.lifetime.end.p0(i64 36, ptr nonnull %buf.i)
  %10 = and i32 %conv.i, 254
  %switch = icmp eq i32 %10, 4
  %spec.select = select i1 %switch, i32 2048, i32 512
  %11 = getelementptr inbounds nuw i8, ptr %dev, i64 560
  store i32 %spec.select, ptr %11, align 8
  %features = getelementptr inbounds nuw i8, ptr %dev, i64 608
  %12 = load i32, ptr %features, align 8
  %or = or i32 %12, 4
  store i32 %or, ptr %features, align 8
  call fastcc void @scsi_realize(ptr noundef nonnull %dev, ptr noundef %errp)
  call void @scsi_generic_read_device_inquiry(ptr noundef nonnull %dev) #18
  br label %out

out:                                              ; preds = %if.then15, %if.then17, %if.end26, %if.then25, %if.then21
  call void @aio_context_release(ptr noundef %call10) #18
  br label %return

return:                                           ; preds = %out, %if.then
  ret void
}